; ModuleID = '22/91.c'
source_filename = "22/91.c"
target datalayout = "e-m:e-p270:32:32-p271:32:32-p272:64:64-i64:64-f80:128-n8:16:32:64-S128"
target triple = "x86_64-pc-linux-gnu"

@.str = private unnamed_addr constant [3 x i8] c"%d\00", align 1
@.str.1 = private unnamed_addr constant [3 x i8] c"%c\00", align 1
@.str.2 = private unnamed_addr constant [3 x i8] c"No\00", align 1

; Function Attrs: noinline nounwind uwtable
define dso_local void @main() #0 {
  %1 = alloca [300 x i32], align 16
  %2 = alloca [300 x i8], align 16
  %3 = alloca i32, align 4
  %4 = alloca i32, align 4
  %5 = alloca i32, align 4
  %6 = alloca i32, align 4
  %7 = bitcast [300 x i8]* %2 to i8*
  call void @llvm.memset.p0i8.i64(i8* align 16 %7, i8 0, i64 300, i1 false)
  store i32 0, i32* %3, align 4
  store i32 0, i32* %4, align 4
  %8 = getelementptr inbounds [300 x i8], [300 x i8]* %2, i64 0, i64 0
  store i8 44, i8* %8, align 16
  br label %9

9:                                                ; preds = %16, %0
  %10 = load i32, i32* %3, align 4
  %11 = sext i32 %10 to i64
  %12 = getelementptr inbounds [300 x i8], [300 x i8]* %2, i64 0, i64 %11
  %13 = load i8, i8* %12, align 1
  %14 = sext i8 %13 to i32
  %15 = icmp eq i32 %14, 44
  br i1 %15, label %16, label %28

16:                                               ; preds = %9
  %17 = load i32, i32* %3, align 4
  %18 = sext i32 %17 to i64
  %19 = getelementptr inbounds [300 x i32], [300 x i32]* %1, i64 0, i64 %18
  %20 = call i32 (i8*, ...) @__isoc99_scanf(i8* getelementptr inbounds ([3 x i8], [3 x i8]* @.str, i64 0, i64 0), i32* %19)
  %21 = load i32, i32* %3, align 4
  %22 = add nsw i32 %21, 1
  %23 = sext i32 %22 to i64
  %24 = getelementptr inbounds [300 x i8], [300 x i8]* %2, i64 0, i64 %23
  %25 = call i32 (i8*, ...) @__isoc99_scanf(i8* getelementptr inbounds ([3 x i8], [3 x i8]* @.str.1, i64 0, i64 0), i8* %24)
  %26 = load i32, i32* %3, align 4
  %27 = add nsw i32 %26, 1
  store i32 %27, i32* %3, align 4
  br label %9

28:                                               ; preds = %9
  %29 = load i32, i32* %3, align 4
  store i32 %29, i32* %5, align 4
  store i32 0, i32* %3, align 4
  br label %30

30:                                               ; preds = %72, %28
  %31 = load i32, i32* %3, align 4
  %32 = load i32, i32* %5, align 4
  %33 = sub nsw i32 %32, 1
  %34 = icmp slt i32 %31, %33
  br i1 %34, label %35, label %75

35:                                               ; preds = %30
  %36 = load i32, i32* %3, align 4
  store i32 %36, i32* %4, align 4
  br label %37

37:                                               ; preds = %68, %35
  %38 = load i32, i32* %4, align 4
  %39 = load i32, i32* %5, align 4
  %40 = icmp slt i32 %38, %39
  br i1 %40, label %41, label %71

41:                                               ; preds = %37
  %42 = load i32, i32* %4, align 4
  %43 = sext i32 %42 to i64
  %44 = getelementptr inbounds [300 x i32], [300 x i32]* %1, i64 0, i64 %43
  %45 = load i32, i32* %44, align 4
  %46 = load i32, i32* %3, align 4
  %47 = sext i32 %46 to i64
  %48 = getelementptr inbounds [300 x i32], [300 x i32]* %1, i64 0, i64 %47
  %49 = load i32, i32* %48, align 4
  %50 = icmp sgt i32 %45, %49
  br i1 %50, label %51, label %67

51:                                               ; preds = %41
  %52 = load i32, i32* %3, align 4
  %53 = sext i32 %52 to i64
  %54 = getelementptr inbounds [300 x i32], [300 x i32]* %1, i64 0, i64 %53
  %55 = load i32, i32* %54, align 4
  store i32 %55, i32* %6, align 4
  %56 = load i32, i32* %4, align 4
  %57 = sext i32 %56 to i64
  %58 = getelementptr inbounds [300 x i32], [300 x i32]* %1, i64 0, i64 %57
  %59 = load i32, i32* %58, align 4
  %60 = load i32, i32* %3, align 4
  %61 = sext i32 %60 to i64
  %62 = getelementptr inbounds [300 x i32], [300 x i32]* %1, i64 0, i64 %61
  store i32 %59, i32* %62, align 4
  %63 = load i32, i32* %6, align 4
  %64 = load i32, i32* %4, align 4
  %65 = sext i32 %64 to i64
  %66 = getelementptr inbounds [300 x i32], [300 x i32]* %1, i64 0, i64 %65
  store i32 %63, i32* %66, align 4
  br label %67

67:                                               ; preds = %51, %41
  br label %68

68:                                               ; preds = %67
  %69 = load i32, i32* %4, align 4
  %70 = add nsw i32 %69, 1
  store i32 %70, i32* %4, align 4
  br label %37

71:                                               ; preds = %37
  br label %72

72:                                               ; preds = %71
  %73 = load i32, i32* %3, align 4
  %74 = add nsw i32 %73, 1
  store i32 %74, i32* %3, align 4
  br label %30

75:                                               ; preds = %30
  store i32 0, i32* %3, align 4
  br label %76

76:                                               ; preds = %104, %75
  %77 = load i32, i32* %3, align 4
  %78 = load i32, i32* %5, align 4
  %79 = sub nsw i32 %78, 1
  %80 = icmp sle i32 %77, %79
  br i1 %80, label %81, label %107

81:                                               ; preds = %76
  %82 = load i32, i32* %3, align 4
  %83 = sext i32 %82 to i64
  %84 = getelementptr inbounds [300 x i32], [300 x i32]* %1, i64 0, i64 %83
  %85 = load i32, i32* %84, align 4
  %86 = getelementptr inbounds [300 x i32], [300 x i32]* %1, i64 0, i64 0
  %87 = load i32, i32* %86, align 16
  %88 = icmp slt i32 %85, %87
  br i1 %88, label %89, label %95

89:                                               ; preds = %81
  %90 = load i32, i32* %3, align 4
  %91 = sext i32 %90 to i64
  %92 = getelementptr inbounds [300 x i32], [300 x i32]* %1, i64 0, i64 %91
  %93 = load i32, i32* %92, align 4
  %94 = call i32 (i8*, ...) @printf(i8* getelementptr inbounds ([3 x i8], [3 x i8]* @.str, i64 0, i64 0), i32 %93)
  br label %107

95:                                               ; preds = %81
  %96 = load i32, i32* %3, align 4
  %97 = load i32, i32* %5, align 4
  %98 = sub nsw i32 %97, 1
  %99 = icmp eq i32 %96, %98
  br i1 %99, label %100, label %102

100:                                              ; preds = %95
  %101 = call i32 (i8*, ...) @printf(i8* getelementptr inbounds ([3 x i8], [3 x i8]* @.str.2, i64 0, i64 0))
  br label %102

102:                                              ; preds = %100, %95
  br label %103

103:                                              ; preds = %102
  br label %104

104:                                              ; preds = %103
  %105 = load i32, i32* %3, align 4
  %106 = add nsw i32 %105, 1
  store i32 %106, i32* %3, align 4
  br label %76

107:                                              ; preds = %89, %76
  ret void
}

; Function Attrs: argmemonly nounwind willreturn
declare void @llvm.memset.p0i8.i64(i8* nocapture writeonly, i8, i64, i1 immarg) #1

declare dso_local i32 @__isoc99_scanf(i8*, ...) #2

declare dso_local i32 @printf(i8*, ...) #2


!llvm.module.flags = !{!0}
!llvm.ident = !{!1}

!0 = !{i32 1, !"wchar_size", i32 4}
!1 = !{!"clang version 10.0.0-4ubuntu1 "}
